target datalayout = "e-m:e-p270:32:32-p271:32:32-p272:64:64-i64:64-i128:128-f80:128-n8:16:32:64-S128"
target triple = "x86_64-pc-linux-gnu"

%struct.buf_chunk = type { ptr, i64, i64, i64, %union.anon }
%union.anon = type { ptr }
%struct.bufq = type { ptr, ptr, ptr, ptr, i64, i64, i64, i32 }

; Function Attrs: nounwind uwtable
define internal zeroext i1 @chunk_is_full(ptr noundef %0) #0 {
  %2 = alloca ptr, align 8
  store ptr %0, ptr %2, align 8
  %3 = load ptr, ptr %2, align 8
  %4 = getelementptr inbounds %struct.buf_chunk, ptr %3, i32 0, i32 3
  %5 = load i64, ptr %4, align 8
  %6 = load ptr, ptr %2, align 8
  %7 = getelementptr inbounds %struct.buf_chunk, ptr %6, i32 0, i32 1
  %8 = load i64, ptr %7, align 8
  %9 = icmp uge i64 %5, %8
  ret i1 %9
}

; Function Attrs: nounwind uwtable
define dso_local zeroext i1 @Curl_bufq_is_full(ptr noundef %0) #0 {
  %2 = alloca i1, align 1
  %3 = alloca ptr, align 8
  store ptr %0, ptr %3, align 8
  %4 = load ptr, ptr %3, align 8
  %5 = getelementptr inbounds %struct.bufq, ptr %4, i32 0, i32 1
  %6 = load ptr, ptr %5, align 8
  %7 = icmp ne ptr %6, null
  br i1 %7, label %8, label %13

8:                                                ; preds = %1
  %9 = load ptr, ptr %3, align 8
  %10 = getelementptr inbounds %struct.bufq, ptr %9, i32 0, i32 2
  %11 = load ptr, ptr %10, align 8
  %12 = icmp ne ptr %11, null
  br i1 %12, label %13, label %14

13:                                               ; preds = %8, %1
  store i1 false, ptr %2, align 1
  br label %37

14:                                               ; preds = %8
  %15 = load ptr, ptr %3, align 8
  %16 = getelementptr inbounds %struct.bufq, ptr %15, i32 0, i32 4
  %17 = load i64, ptr %16, align 8
  %18 = load ptr, ptr %3, align 8
  %19 = getelementptr inbounds %struct.bufq, ptr %18, i32 0, i32 5
  %20 = load i64, ptr %19, align 8
  %21 = icmp ult i64 %17, %20
  br i1 %21, label %22, label %23

22:                                               ; preds = %14
  store i1 false, ptr %2, align 1
  br label %37

23:                                               ; preds = %14
  %24 = load ptr, ptr %3, align 8
  %25 = getelementptr inbounds %struct.bufq, ptr %24, i32 0, i32 4
  %26 = load i64, ptr %25, align 8
  %27 = load ptr, ptr %3, align 8
  %28 = getelementptr inbounds %struct.bufq, ptr %27, i32 0, i32 5
  %29 = load i64, ptr %28, align 8
  %30 = icmp ugt i64 %26, %29
  br i1 %30, label %31, label %32

31:                                               ; preds = %23
  store i1 true, ptr %2, align 1
  br label %37

32:                                               ; preds = %23
  %33 = load ptr, ptr %3, align 8
  %34 = getelementptr inbounds %struct.bufq, ptr %33, i32 0, i32 1
  %35 = load ptr, ptr %34, align 8
  %36 = call zeroext i1 @chunk_is_full(ptr noundef %35)
  store i1 %36, ptr %2, align 1
  br label %37

37:                                               ; preds = %32, %31, %22, %13
  %38 = load i1, ptr %2, align 1
  ret i1 %38
}