; Function Attrs: mustprogress nofree norecurse nosync nounwind willreturn memory(read, inaccessiblemem: none) uwtable
define dso_local zeroext i1 @Curl_bufq_is_full(ptr noundef readonly captures(none) %0) local_unnamed_addr #6 {
  %2 = getelementptr inbounds nuw i8, ptr %0, i64 8
  %3 = load ptr, ptr %2, align 8
  %.not = icmp eq ptr %3, null
  br i1 %.not, label %19, label %4

4:                                                ; preds = %1
  %5 = getelementptr inbounds nuw i8, ptr %0, i64 16
  %6 = load ptr, ptr %5, align 8
  %.not11 = icmp eq ptr %6, null
  br i1 %.not11, label %7, label %19

7:                                                ; preds = %4
  %8 = getelementptr inbounds nuw i8, ptr %0, i64 32
  %9 = load i64, ptr %8, align 8
  %10 = getelementptr inbounds nuw i8, ptr %0, i64 40
  %11 = load i64, ptr %10, align 8
  %12 = icmp ult i64 %9, %11
  br i1 %12, label %19, label %13

13:                                               ; preds = %7
  %14 = icmp ugt i64 %9, %11
  br i1 %14, label %19, label %15

15:                                               ; preds = %13
  %16 = getelementptr i8, ptr %3, i64 8
  %.val = load i64, ptr %16, align 8
  %17 = getelementptr i8, ptr %3, i64 24
  %.val12 = load i64, ptr %17, align 8
  %18 = icmp uge i64 %.val12, %.val
  br label %19

19:                                               ; preds = %13, %7, %1, %4, %15
  %.0 = phi i1 [ %18, %15 ], [ false, %4 ], [ false, %1 ], [ false, %7 ], [ true, %13 ]
  ret i1 %.0
}